Certificate:
    Data:
        Version: 3 (0x2)
        Serial Number:
            5d:9b:e6:58:5d:c2:44:a5:50:3a:a3:84:3d:92:92:f2:3f:e9:51:f7
        Signature Algorithm: sha256WithRSAEncryption
        Issuer: CN = localhost
        Validity
            Not Before: Dec 23 20:49:56 2023 GMT
            Not After : Jan 22 20:49:56 2024 GMT
        Subject: CN = localhost
        Subject Public Key Info:
            Public Key Algorithm: rsaEncryption
                Public-Key: (2048 bit)
                Modulus:
                    00:a3:7f:37:78:6e:1a:ea:7d:fb:a4:d3:4e:bb:e6:
                    32:f4:14:08:0a:ee:ae:c2:76:e3:16:1f:d9:3e:90:
                    4a:99:37:1c:23:e3:1c:3f:67:16:62:f5:46:37:47:
                    94:5b:55:43:d4:c5:0e:15:d5:29:4c:b1:85:a6:de:
                    9e:08:98:c0:aa:ce:e6:85:f1:5b:19:b7:a9:2e:ed:
                    28:f1:76:6b:bd:3c:7b:fc:d5:7c:d3:b6:db:6e:9d:
                    85:a4:ba:13:d7:ee:37:ad:95:e4:c5:19:3c:2a:37:
                    38:0a:8e:d5:05:c0:56:b3:1c:9a:6c:e2:25:28:4d:
                    ee:7b:bc:69:6c:cb:aa:41:d4:fa:c8:06:61:1c:38:
                    e9:3c:06:c3:9e:84:67:a7:09:d7:d8:c6:c8:a4:92:
                    23:d1:b2:4a:9e:18:72:2d:85:af:c8:43:6b:fd:5a:
                    6a:5b:16:db:fb:31:a8:f6:f7:3c:cd:fe:6a:6f:80:
                    15:5e:00:97:4b:3e:61:2e:fe:b5:dc:66:6f:51:db:
                    38:71:74:18:fa:80:b3:5d:67:31:42:fe:bf:0b:93:
                    d2:f9:66:83:2f:a2:1c:16:5e:3a:56:27:fc:8a:7d:
                    b1:d2:04:04:de:8f:63:30:20:4b:f2:66:83:9a:83:
                    eb:0f:07:00:da:29:30:c7:99:de:ed:f7:c9:42:bf:
                    d6:df
                Exponent: 65537 (0x10001)
        X509v3 extensions:
            X509v3 Subject Key Identifier: 
                FC:FA:46:53:04:50:21:E9:14:C8:28:19:24:66:68:B0:B9:96:69:4E
            X509v3 Authority Key Identifier: 
                FC:FA:46:53:04:50:21:E9:14:C8:28:19:24:66:68:B0:B9:96:69:4E
            X509v3 Basic Constraints: critical
                CA:TRUE
    Signature Algorithm: sha256WithRSAEncryption
    Signature Value:
        0f:7a:8c:fe:d7:ab:20:a7:18:9d:b0:6c:0c:2a:f8:bd:3f:57:
        ed:83:af:09:61:b7:9b:f4:73:0a:14:b3:ab:ff:ef:ae:5c:f4:
        d6:06:02:c8:7b:30:9c:15:26:db:16:2d:72:b9:27:75:f9:50:
        b1:b7:9c:de:01:f1:4b:35:4e:9c:0a:05:f4:f4:03:d1:16:31:
        ba:2e:5f:df:71:5a:71:18:0f:06:fa:4d:7d:8b:79:98:af:d5:
        e3:4e:f6:d2:4c:f9:05:c7:b0:ef:98:0a:15:37:1d:e2:1b:97:
        81:84:c4:b8:d3:cc:8f:77:27:59:71:c8:c3:1e:3e:5c:70:d4:
        25:54:53:64:fd:c1:eb:40:83:23:94:3a:b2:3b:cd:77:e2:06:
        10:85:6c:9f:b8:07:21:ac:8b:65:da:86:e7:40:4c:32:1a:67:
        d6:f0:29:6e:b4:19:17:6a:e4:26:43:6e:7e:b2:3d:16:5d:65:
        f4:8e:fe:ab:0a:db:4a:16:52:81:03:cd:cc:e0:17:20:b5:8b:
        14:7f:b3:c3:35:8c:f7:c4:05:11:48:47:ab:1d:4e:9f:6c:13:
        8c:f6:85:03:43:aa:50:6c:19:14:fb:ef:d3:d0:99:03:e3:ef:
        e4:1e:85:71:bd:fb:f8:3e:88:36:5c:c7:2b:f8:70:b3:eb:ff:
        ef:36:e3:c5
-----BEGIN CERTIFICATE-----
MIIDCTCCAfGgAwIBAgIUXZvmWF3CRKVQOqOEPZKS8j/pUfcwDQYJKoZIhvcNAQEL
BQAwFDESMBAGA1UEAwwJbG9jYWxob3N0MB4XDTIzMTIyMzIwNDk1NloXDTI0MDEy
MjIwNDk1NlowFDESMBAGA1UEAwwJbG9jYWxob3N0MIIBIjANBgkqhkiG9w0BAQEF
AAOCAQ8AMIIBCgKCAQEAo383eG4a6n37pNNOu+Yy9BQICu6uwnbjFh/ZPpBKmTcc
I+McP2cWYvVGN0eUW1VD1MUOFdUpTLGFpt6eCJjAqs7mhfFbGbepLu0o8XZrvTx7
/NV807bbbp2FpLoT1+43rZXkxRk8Kjc4Co7VBcBWsxyabOIlKE3ue7xpbMuqQdT6
yAZhHDjpPAbDnoRnpwnX2MbIpJIj0bJKnhhyLYWvyENr/VpqWxbb+zGo9vc8zf5q
b4AVXgCXSz5hLv613GZvUds4cXQY+oCzXWcxQv6/C5PS+WaDL6IcFl46Vif8in2x
0gQE3o9jMCBL8maDmoPrDwcA2ikwx5ne7ffJQr/W3wIDAQABo1MwUTAdBgNVHQ4E
FgQU/PpGUwRQIekUyCgZJGZosLmWaU4wHwYDVR0jBBgwFoAU/PpGUwRQIekUyCgZ
JGZosLmWaU4wDwYDVR0TAQH/BAUwAwEB/zANBgkqhkiG9w0BAQsFAAOCAQEAD3qM
/terIKcYnbBsDCr4vT9X7YOvCWG3m/RzChSzq//vrlz01gYCyHswnBUm2xYtcrkn
dflQsbec3gHxSzVOnAoF9PQD0RYxui5f33FacRgPBvpNfYt5mK/V40720kz5Bcew
75gKFTcd4huXgYTEuNPMj3cnWXHIwx4+XHDUJVRTZP3B60CDI5Q6sjvNd+IGEIVs
n7gHIayLZdqG50BMMhpn1vApbrQZF2rkJkNufrI9Fl1l9I7+qwrbShZSgQPNzOAX
ILWLFH+zwzWM98QFEUhHqx1On2wTjPaFA0OqUGwZFPvv09CZA+Pv5B6Fcb37+D6I
NlzHK/hws+v/7zbjxQ==
-----END CERTIFICATE-----
